target datalayout = "e-m:e-p270:32:32-p271:32:32-p272:64:64-i64:64-i128:128-f80:128-n8:16:32:64-S128"
target triple = "x86_64-pc-linux-gnu"

@.str.35 = private unnamed_addr constant [16 x i8] c"IDAGetLastOrder\00", align 1
@.str.36 = private unnamed_addr constant [15 x i8] c"IDAGetNumSteps\00", align 1
@.str.37 = private unnamed_addr constant [25 x i8] c"IDAGetNumNonlinSolvIters\00", align 1
@.str.38 = private unnamed_addr constant [18 x i8] c"IDAGetNumResEvals\00", align 1
@.str.39 = private unnamed_addr constant [15 x i8] c"IDAGetLastStep\00", align 1
@.str.40 = private unnamed_addr constant [21 x i8] c"IDAGetNumJtimesEvals\00", align 1
@.str.41 = private unnamed_addr constant [18 x i8] c"IDAGetNumLinIters\00", align 1
@.str.42 = private unnamed_addr constant [21 x i8] c"IDAGetNumLinResEvals\00", align 1
@.str.43 = private unnamed_addr constant [16 x i8] c"IDAGetPrecEvals\00", align 1
@.str.44 = private unnamed_addr constant [20 x i8] c"IDAGetNumPrecSolves\00", align 1
@.str.45 = private unnamed_addr constant [67 x i8] c" %5.2f %13.5e  %d  %3ld  %3ld  %3ld  %4ld  %4ld  %9.2e  %3ld %3ld\0A\00", align 1
@stderr = external global ptr, align 8
@.str.46 = private unnamed_addr constant [55 x i8] c"\0ASUNDIALS_ERROR: %s() failed - returned NULL pointer\0A\0A\00", align 1
@.str.47 = private unnamed_addr constant [48 x i8] c"\0ASUNDIALS_ERROR: %s() failed with retval = %d\0A\0A\00", align 1
@.str.48 = private unnamed_addr constant [53 x i8] c"\0AMEMORY_ERROR: %s() failed - returned NULL pointer\0A\0A\00", align 1

; Function Attrs: nounwind uwtable
define internal i32 @check_retval(ptr noundef %0, ptr noundef %1, i32 noundef %2) #0 {
  %4 = alloca i32, align 4
  %5 = alloca ptr, align 8
  %6 = alloca ptr, align 8
  %7 = alloca i32, align 4
  %8 = alloca ptr, align 8
  %9 = alloca i32, align 4
  store ptr %0, ptr %5, align 8, !tbaa !4
  store ptr %1, ptr %6, align 8, !tbaa !25
  store i32 %2, ptr %7, align 4, !tbaa !12
  call void @llvm.lifetime.start.p0(i64 8, ptr %8) #6
  %10 = load i32, ptr %7, align 4, !tbaa !12
  %11 = icmp eq i32 %10, 0
  br i1 %11, label %12, label %19

12:                                               ; preds = %3
  %13 = load ptr, ptr %5, align 8, !tbaa !4
  %14 = icmp eq ptr %13, null
  br i1 %14, label %15, label %19

15:                                               ; preds = %12
  %16 = load ptr, ptr @stderr, align 8, !tbaa !27
  %17 = load ptr, ptr %6, align 8, !tbaa !25
  %18 = call i32 (ptr, ptr, ...) @fprintf(ptr noundef %16, ptr noundef @.str.46, ptr noundef %17) #6
  store i32 1, ptr %4, align 4
  store i32 1, ptr %9, align 4
  br label %47

19:                                               ; preds = %12, %3
  %20 = load i32, ptr %7, align 4, !tbaa !12
  %21 = icmp eq i32 %20, 1
  br i1 %21, label %22, label %34

22:                                               ; preds = %19
  %23 = load ptr, ptr %5, align 8, !tbaa !4
  store ptr %23, ptr %8, align 8, !tbaa !29
  %24 = load ptr, ptr %8, align 8, !tbaa !29
  %25 = load i32, ptr %24, align 4, !tbaa !12
  %26 = icmp slt i32 %25, 0
  br i1 %26, label %27, label %33

27:                                               ; preds = %22
  %28 = load ptr, ptr @stderr, align 8, !tbaa !27
  %29 = load ptr, ptr %6, align 8, !tbaa !25
  %30 = load ptr, ptr %8, align 8, !tbaa !29
  %31 = load i32, ptr %30, align 4, !tbaa !12
  %32 = call i32 (ptr, ptr, ...) @fprintf(ptr noundef %28, ptr noundef @.str.47, ptr noundef %29, i32 noundef %31) #6
  store i32 1, ptr %4, align 4
  store i32 1, ptr %9, align 4
  br label %47

33:                                               ; preds = %22
  br label %45

34:                                               ; preds = %19
  %35 = load i32, ptr %7, align 4, !tbaa !12
  %36 = icmp eq i32 %35, 2
  br i1 %36, label %37, label %44

37:                                               ; preds = %34
  %38 = load ptr, ptr %5, align 8, !tbaa !4
  %39 = icmp eq ptr %38, null
  br i1 %39, label %40, label %44

40:                                               ; preds = %37
  %41 = load ptr, ptr @stderr, align 8, !tbaa !27
  %42 = load ptr, ptr %6, align 8, !tbaa !25
  %43 = call i32 (ptr, ptr, ...) @fprintf(ptr noundef %41, ptr noundef @.str.48, ptr noundef %42) #6
  store i32 1, ptr %4, align 4
  store i32 1, ptr %9, align 4
  br label %47

44:                                               ; preds = %37, %34
  br label %45

45:                                               ; preds = %44, %33
  br label %46

46:                                               ; preds = %45
  store i32 0, ptr %4, align 4
  store i32 1, ptr %9, align 4
  br label %47

47:                                               ; preds = %46, %40, %27, %15
  call void @llvm.lifetime.end.p0(i64 8, ptr %8) #6
  %48 = load i32, ptr %4, align 4
  ret i32 %48
}

; Function Attrs: nounwind uwtable
define internal void @PrintOutput(ptr noundef %0, double noundef %1, ptr noundef %2) #0 {
  %4 = alloca ptr, align 8
  %5 = alloca double, align 8
  %6 = alloca ptr, align 8
  %7 = alloca double, align 8
  %8 = alloca double, align 8
  %9 = alloca i64, align 8
  %10 = alloca i64, align 8
  %11 = alloca i64, align 8
  %12 = alloca i64, align 8
  %13 = alloca i64, align 8
  %14 = alloca i64, align 8
  %15 = alloca i64, align 8
  %16 = alloca i64, align 8
  %17 = alloca i32, align 4
  %18 = alloca i32, align 4
  store ptr %0, ptr %4, align 8, !tbaa !4
  store double %1, ptr %5, align 8, !tbaa !23
  store ptr %2, ptr %6, align 8, !tbaa !8
  call void @llvm.lifetime.start.p0(i64 8, ptr %7) #6
  call void @llvm.lifetime.start.p0(i64 8, ptr %8) #6
  call void @llvm.lifetime.start.p0(i64 8, ptr %9) #6
  call void @llvm.lifetime.start.p0(i64 8, ptr %10) #6
  call void @llvm.lifetime.start.p0(i64 8, ptr %11) #6
  call void @llvm.lifetime.start.p0(i64 8, ptr %12) #6
  call void @llvm.lifetime.start.p0(i64 8, ptr %13) #6
  call void @llvm.lifetime.start.p0(i64 8, ptr %14) #6
  call void @llvm.lifetime.start.p0(i64 8, ptr %15) #6
  call void @llvm.lifetime.start.p0(i64 8, ptr %16) #6
  call void @llvm.lifetime.start.p0(i64 4, ptr %17) #6
  call void @llvm.lifetime.start.p0(i64 4, ptr %18) #6
  %19 = load ptr, ptr %6, align 8, !tbaa !8
  %20 = call double @N_VMaxNorm(ptr noundef %19)
  store double %20, ptr %8, align 8, !tbaa !23
  %21 = load ptr, ptr %4, align 8, !tbaa !4
  %22 = call i32 @IDAGetLastOrder(ptr noundef %21, ptr noundef %17)
  store i32 %22, ptr %18, align 4, !tbaa !12
  %23 = call i32 @check_retval(ptr noundef %18, ptr noundef @.str.35, i32 noundef 1)
  %24 = load ptr, ptr %4, align 8, !tbaa !4
  %25 = call i32 @IDAGetNumSteps(ptr noundef %24, ptr noundef %9)
  store i32 %25, ptr %18, align 4, !tbaa !12
  %26 = call i32 @check_retval(ptr noundef %18, ptr noundef @.str.36, i32 noundef 1)
  %27 = load ptr, ptr %4, align 8, !tbaa !4
  %28 = call i32 @IDAGetNumNonlinSolvIters(ptr noundef %27, ptr noundef %10)
  store i32 %28, ptr %18, align 4, !tbaa !12
  %29 = call i32 @check_retval(ptr noundef %18, ptr noundef @.str.37, i32 noundef 1)
  %30 = load ptr, ptr %4, align 8, !tbaa !4
  %31 = call i32 @IDAGetNumResEvals(ptr noundef %30, ptr noundef %12)
  store i32 %31, ptr %18, align 4, !tbaa !12
  %32 = call i32 @check_retval(ptr noundef %18, ptr noundef @.str.38, i32 noundef 1)
  %33 = load ptr, ptr %4, align 8, !tbaa !4
  %34 = call i32 @IDAGetLastStep(ptr noundef %33, ptr noundef %7)
  store i32 %34, ptr %18, align 4, !tbaa !12
  %35 = call i32 @check_retval(ptr noundef %18, ptr noundef @.str.39, i32 noundef 1)
  %36 = load ptr, ptr %4, align 8, !tbaa !4
  %37 = call i32 @IDAGetNumJtimesEvals(ptr noundef %36, ptr noundef %11)
  store i32 %37, ptr %18, align 4, !tbaa !12
  %38 = call i32 @check_retval(ptr noundef %18, ptr noundef @.str.40, i32 noundef 1)
  %39 = load ptr, ptr %4, align 8, !tbaa !4
  %40 = call i32 @IDAGetNumLinIters(ptr noundef %39, ptr noundef %14)
  store i32 %40, ptr %18, align 4, !tbaa !12
  %41 = call i32 @check_retval(ptr noundef %18, ptr noundef @.str.41, i32 noundef 1)
  %42 = load ptr, ptr %4, align 8, !tbaa !4
  %43 = call i32 @IDAGetNumLinResEvals(ptr noundef %42, ptr noundef %13)
  store i32 %43, ptr %18, align 4, !tbaa !12
  %44 = call i32 @check_retval(ptr noundef %18, ptr noundef @.str.42, i32 noundef 1)
  %45 = load ptr, ptr %4, align 8, !tbaa !4
  %46 = call i32 @IDAGetNumPrecEvals(ptr noundef %45, ptr noundef %15)
  store i32 %46, ptr %18, align 4, !tbaa !12
  %47 = call i32 @check_retval(ptr noundef %18, ptr noundef @.str.43, i32 noundef 1)
  %48 = load ptr, ptr %4, align 8, !tbaa !4
  %49 = call i32 @IDAGetNumPrecSolves(ptr noundef %48, ptr noundef %16)
  store i32 %49, ptr %18, align 4, !tbaa !12
  %50 = call i32 @check_retval(ptr noundef %18, ptr noundef @.str.44, i32 noundef 1)
  %51 = load double, ptr %5, align 8, !tbaa !23
  %52 = load double, ptr %8, align 8, !tbaa !23
  %53 = load i32, ptr %17, align 4, !tbaa !12
  %54 = load i64, ptr %9, align 8, !tbaa !24
  %55 = load i64, ptr %10, align 8, !tbaa !24
  %56 = load i64, ptr %11, align 8, !tbaa !24
  %57 = load i64, ptr %12, align 8, !tbaa !24
  %58 = load i64, ptr %13, align 8, !tbaa !24
  %59 = load double, ptr %7, align 8, !tbaa !23
  %60 = load i64, ptr %15, align 8, !tbaa !24
  %61 = load i64, ptr %16, align 8, !tbaa !24
  %62 = call i32 (ptr, ...) @printf(ptr noundef @.str.45, double noundef %51, double noundef %52, i32 noundef %53, i64 noundef %54, i64 noundef %55, i64 noundef %56, i64 noundef %57, i64 noundef %58, double noundef %59, i64 noundef %60, i64 noundef %61)
  call void @llvm.lifetime.end.p0(i64 4, ptr %18) #6
  call void @llvm.lifetime.end.p0(i64 4, ptr %17) #6
  call void @llvm.lifetime.end.p0(i64 8, ptr %16) #6
  call void @llvm.lifetime.end.p0(i64 8, ptr %15) #6
  call void @llvm.lifetime.end.p0(i64 8, ptr %14) #6
  call void @llvm.lifetime.end.p0(i64 8, ptr %13) #6
  call void @llvm.lifetime.end.p0(i64 8, ptr %12) #6
  call void @llvm.lifetime.end.p0(i64 8, ptr %11) #6
  call void @llvm.lifetime.end.p0(i64 8, ptr %10) #6
  call void @llvm.lifetime.end.p0(i64 8, ptr %9) #6
  call void @llvm.lifetime.end.p0(i64 8, ptr %8) #6
  call void @llvm.lifetime.end.p0(i64 8, ptr %7) #6
  ret void
}